target datalayout = "e-m:e-p270:32:32-p271:32:32-p272:64:64-i64:64-i128:128-f80:128-n8:16:32:64-S128"
target triple = "x86_64-pc-linux-gnu"

%struct.client_response = type { ptr }

@plugin_type = external constant [0 x i8], align 1
@.str.53 = private unnamed_addr constant [4 x i8] c"key\00", align 1
@.str.62 = private unnamed_addr constant [37 x i8] c"%s: %s: mpi/pmi2: in _handle_kvs_get\00", align 1
@__func__._handle_kvs_get = private unnamed_addr constant [16 x i8] c"_handle_kvs_get\00", align 1
@.str.63 = private unnamed_addr constant [47 x i8] c"cmd=kvs-get-response;rc=0;found=TRUE;value=%s;\00", align 1
@.str.64 = private unnamed_addr constant [39 x i8] c"cmd=kvs-get-response;rc=0;found=FALSE;\00", align 1
@.str.65 = private unnamed_addr constant [38 x i8] c"%s: %s: mpi/pmi2: out _handle_kvs_get\00", align 1

; Function Attrs: nounwind uwtable
define internal i32 @_handle_kvs_get(i32 noundef %0, i32 noundef %1, ptr noundef %2) #0 {
  %4 = alloca i32, align 4
  %5 = alloca i32, align 4
  %6 = alloca ptr, align 8
  %7 = alloca i32, align 4
  %8 = alloca ptr, align 8
  %9 = alloca ptr, align 8
  %10 = alloca ptr, align 8
  store i32 %0, ptr %4, align 4
  store i32 %1, ptr %5, align 4
  store ptr %2, ptr %6, align 8
  call void @llvm.lifetime.start.p0(i64 4, ptr %7) #6
  call void @llvm.lifetime.start.p0(i64 8, ptr %8) #6
  call void @llvm.lifetime.start.p0(i64 8, ptr %9) #6
  store ptr null, ptr %9, align 8
  call void @llvm.lifetime.start.p0(i64 8, ptr %10) #6
  br label %11

11:                                               ; preds = %3
  br label %12

12:                                               ; preds = %11
  %13 = call i32 @slurm_get_log_level()
  %14 = icmp sge i32 %13, 7
  br i1 %14, label %15, label %16

15:                                               ; preds = %12
  call void (i32, ptr, ...) @slurm_log_var(i32 noundef 7, ptr noundef @.str.62, ptr noundef @plugin_type, ptr noundef @__func__._handle_kvs_get)
  br label %16

16:                                               ; preds = %15, %12
  br label %17

17:                                               ; preds = %16
  br label %18

18:                                               ; preds = %17
  br label %19

19:                                               ; preds = %18
  br label %20

20:                                               ; preds = %19
  %21 = load ptr, ptr %6, align 8
  %22 = call i32 @client_req_parse_body(ptr noundef %21)
  %23 = load ptr, ptr %6, align 8
  %24 = call zeroext i1 @client_req_get_str(ptr noundef %23, ptr noundef @.str.53, ptr noundef %9)
  %25 = load ptr, ptr %9, align 8
  %26 = call ptr @kvs_get(ptr noundef %25)
  store ptr %26, ptr %10, align 8
  call void @slurm_xfree(ptr noundef %9)
  %27 = call ptr @client_resp_new()
  store ptr %27, ptr %8, align 8
  %28 = load ptr, ptr %10, align 8
  %29 = icmp ne ptr %28, null
  br i1 %29, label %30, label %37

30:                                               ; preds = %20
  br label %31

31:                                               ; preds = %30
  %32 = load ptr, ptr %8, align 8
  %33 = getelementptr inbounds nuw %struct.client_response, ptr %32, i32 0, i32 0
  %34 = load ptr, ptr %10, align 8
  call void (ptr, ptr, ...) @slurm_xstrfmtcat(ptr noundef %33, ptr noundef @.str.63, ptr noundef %34)
  br label %35

35:                                               ; preds = %31
  br label %36

36:                                               ; preds = %35
  br label %43

37:                                               ; preds = %20
  br label %38

38:                                               ; preds = %37
  %39 = load ptr, ptr %8, align 8
  %40 = getelementptr inbounds nuw %struct.client_response, ptr %39, i32 0, i32 0
  call void (ptr, ptr, ...) @slurm_xstrfmtcat(ptr noundef %40, ptr noundef @.str.64)
  br label %41

41:                                               ; preds = %38
  br label %42

42:                                               ; preds = %41
  br label %43

43:                                               ; preds = %42, %36
  %44 = load ptr, ptr %8, align 8
  %45 = load i32, ptr %4, align 4
  %46 = call i32 @client_resp_send(ptr noundef %44, i32 noundef %45)
  store i32 %46, ptr %7, align 4
  %47 = load ptr, ptr %8, align 8
  call void @client_resp_free(ptr noundef %47)
  br label %48

48:                                               ; preds = %43
  br label %49

49:                                               ; preds = %48
  %50 = call i32 @slurm_get_log_level()
  %51 = icmp sge i32 %50, 7
  br i1 %51, label %52, label %53

52:                                               ; preds = %49
  call void (i32, ptr, ...) @slurm_log_var(i32 noundef 7, ptr noundef @.str.65, ptr noundef @plugin_type, ptr noundef @__func__._handle_kvs_get)
  br label %53

53:                                               ; preds = %52, %49
  br label %54

54:                                               ; preds = %53
  br label %55

55:                                               ; preds = %54
  br label %56

56:                                               ; preds = %55
  br label %57

57:                                               ; preds = %56
  %58 = load i32, ptr %7, align 4
  call void @llvm.lifetime.end.p0(i64 8, ptr %10) #6
  call void @llvm.lifetime.end.p0(i64 8, ptr %9) #6
  call void @llvm.lifetime.end.p0(i64 8, ptr %8) #6
  call void @llvm.lifetime.end.p0(i64 4, ptr %7) #6
  ret i32 %58
}