; Function Attrs: nounwind uwtable
define internal i32 @_handle_kvs_get(i32 noundef %0, i32 %1, ptr noundef %2) #0 {
  %4 = alloca ptr, align 8
  call void @llvm.lifetime.start.p0(i64 8, ptr nonnull %4) #7
  store ptr null, ptr %4, align 8
  %5 = tail call i32 @slurm_get_log_level() #7
  %6 = icmp sgt i32 %5, 6
  br i1 %6, label %7, label %8

7:                                                ; preds = %3
  tail call void (i32, ptr, ...) @slurm_log_var(i32 noundef 7, ptr noundef nonnull @.str.62, ptr noundef nonnull @plugin_type, ptr noundef nonnull @__func__._handle_kvs_get) #7
  br label %8

8:                                                ; preds = %7, %3
  %9 = tail call i32 @client_req_parse_body(ptr noundef %2) #7
  %10 = call zeroext i1 @client_req_get_str(ptr noundef %2, ptr noundef nonnull @.str.53, ptr noundef nonnull %4) #7
  %11 = load ptr, ptr %4, align 8
  %12 = call ptr @kvs_get(ptr noundef %11) #7
  call void @slurm_xfree(ptr noundef nonnull %4) #7
  %13 = call ptr @client_resp_new() #7
  %.not = icmp eq ptr %12, null
  br i1 %.not, label %15, label %14

14:                                               ; preds = %8
  call void (ptr, ptr, ...) @slurm_xstrfmtcat(ptr noundef %13, ptr noundef nonnull @.str.63, ptr noundef nonnull %12) #7
  br label %16

15:                                               ; preds = %8
  call void (ptr, ptr, ...) @slurm_xstrfmtcat(ptr noundef %13, ptr noundef nonnull @.str.64) #7
  br label %16

16:                                               ; preds = %15, %14
  %17 = call i32 @client_resp_send(ptr noundef %13, i32 noundef %0) #7
  call void @client_resp_free(ptr noundef %13) #7
  %18 = call i32 @slurm_get_log_level() #7
  %19 = icmp sgt i32 %18, 6
  br i1 %19, label %20, label %21

20:                                               ; preds = %16
  call void (i32, ptr, ...) @slurm_log_var(i32 noundef 7, ptr noundef nonnull @.str.65, ptr noundef nonnull @plugin_type, ptr noundef nonnull @__func__._handle_kvs_get) #7
  br label %21

21:                                               ; preds = %20, %16
  call void @llvm.lifetime.end.p0(i64 8, ptr nonnull %4) #7
  ret i32 %17
}